target datalayout = "e-m:e-p270:32:32-p271:32:32-p272:64:64-i64:64-i128:128-f80:128-n8:16:32:64-S128"
target triple = "x86_64-pc-linux-gnu"

%struct.FormData_pg_attribute = type { i32, %struct.nameData, i32, i16, i16, i32, i16, i8, i8, i8, i8, i8, i8, i8, i8, i8, i8, i8, i16, i32 }
%struct.nameData = type { [64 x i8] }
%struct.RelationData = type { %struct.RelFileLocator, ptr, i32, i32, i8, i8, i8, i8, i8, i32, i32, i32, i32, ptr, ptr, i32, %struct.LockInfoData, ptr, ptr, ptr, ptr, ptr, i8, ptr, ptr, ptr, ptr, ptr, ptr, i32, ptr, i8, ptr, ptr, i32, i8, i32, ptr, i8, ptr, ptr, ptr, ptr, ptr, ptr, ptr, i32, ptr, ptr, ptr, ptr, ptr, ptr, ptr, ptr, ptr, ptr, ptr, ptr, ptr, ptr, ptr, ptr, ptr, ptr, ptr, i32, i8, ptr }
%struct.RelFileLocator = type { i32, i32, i32 }
%struct.LockInfoData = type { %struct.LockRelId }
%struct.LockRelId = type { i32, i32 }
%struct.FormData_pg_class = type { i32, %struct.nameData, i32, i32, i32, i32, i32, i32, i32, i32, float, i32, i32, i8, i8, i8, i8, i16, i16, i8, i8, i8, i8, i8, i8, i8, i8, i32, i32, i32 }
%struct.HeapTupleData = type { i32, %struct.ItemPointerData, i32, ptr }
%struct.ItemPointerData = type { %struct.BlockIdData, i16 }
%struct.BlockIdData = type { i16, i16 }
%struct.HeapTupleHeaderData = type { %union.anon, %struct.ItemPointerData, i16, i16, i8, [0 x i8] }
%union.anon = type { %struct.HeapTupleFields }
%struct.HeapTupleFields = type { i32, i32, %union.anon.0 }
%union.anon.0 = type { i32 }
%struct.AlterTableCmd = type { i32, i32, ptr, i16, ptr, ptr, i32, i8, i8 }

@.str.2 = private unnamed_addr constant [12 x i8] c"tablecmds.c\00", align 1
@.str.217 = private unnamed_addr constant [66 x i8] c"ALTER TABLE / DROP EXPRESSION must be applied to child tables too\00", align 1
@__func__.ATPrepDropExpression = private unnamed_addr constant [21 x i8] c"ATPrepDropExpression\00", align 1
@.str.218 = private unnamed_addr constant [44 x i8] c"column \22%s\22 of relation \22%s\22 does not exist\00", align 1
@.str.219 = private unnamed_addr constant [56 x i8] c"cannot drop generation expression from inherited column\00", align 1

; Function Attrs: inlinehint nounwind uwtable
define internal ptr @GETSTRUCT(ptr noundef %0) #6 {
  %2 = alloca ptr, align 8
  store ptr %0, ptr %2, align 8
  %3 = load ptr, ptr %2, align 8
  %4 = getelementptr inbounds nuw %struct.HeapTupleData, ptr %3, i32 0, i32 3
  %5 = load ptr, ptr %4, align 8
  %6 = load ptr, ptr %2, align 8
  %7 = getelementptr inbounds nuw %struct.HeapTupleData, ptr %6, i32 0, i32 3
  %8 = load ptr, ptr %7, align 8
  %9 = getelementptr inbounds nuw %struct.HeapTupleHeaderData, ptr %8, i32 0, i32 4
  %10 = load i8, ptr %9, align 2
  %11 = zext i8 %10 to i32
  %12 = sext i32 %11 to i64
  %13 = getelementptr inbounds i8, ptr %5, i64 %12
  ret ptr %13
}

; Function Attrs: nounwind uwtable
define internal void @ATPrepDropExpression(ptr noundef %0, ptr noundef %1, i1 noundef zeroext %2, i1 noundef zeroext %3, i32 noundef %4) #0 {
  %6 = alloca ptr, align 8
  %7 = alloca ptr, align 8
  %8 = alloca i8, align 1
  %9 = alloca i8, align 1
  %10 = alloca i32, align 4
  %11 = alloca ptr, align 8
  %12 = alloca ptr, align 8
  store ptr %0, ptr %6, align 8
  store ptr %1, ptr %7, align 8
  %13 = zext i1 %2 to i8
  store i8 %13, ptr %8, align 1
  %14 = zext i1 %3 to i8
  store i8 %14, ptr %9, align 1
  store i32 %4, ptr %10, align 4
  %15 = load i8, ptr %8, align 1, !range !6, !noundef !7
  %16 = trunc i8 %15 to i1
  br i1 %16, label %35, label %17

17:                                               ; preds = %5
  %18 = load ptr, ptr %6, align 8
  %19 = getelementptr inbounds nuw %struct.RelationData, ptr %18, i32 0, i32 15
  %20 = load i32, ptr %19, align 8
  %21 = load i32, ptr %10, align 4
  %22 = call ptr @find_inheritance_children(i32 noundef %20, i32 noundef %21)
  %23 = icmp ne ptr %22, null
  br i1 %23, label %24, label %35

24:                                               ; preds = %17
  br label %25

25:                                               ; preds = %24
  br i1 true, label %26, label %28

26:                                               ; preds = %25
  %27 = call zeroext i1 @errstart_cold(i32 noundef 21, ptr noundef null) #13
  br i1 %27, label %30, label %33

28:                                               ; preds = %25
  %29 = call zeroext i1 @errstart(i32 noundef 21, ptr noundef null)
  br i1 %29, label %30, label %33

30:                                               ; preds = %28, %26
  %31 = call i32 @errcode(i32 noundef 1088)
  %32 = call i32 (ptr, ...) @errmsg(ptr noundef @.str.217)
  call void @errfinish(ptr noundef @.str.2, i32 noundef 8602, ptr noundef @__func__.ATPrepDropExpression)
  br label %33

33:                                               ; preds = %30, %28, %26
  unreachable

34:                                               ; No predecessors!
  br label %35

35:                                               ; preds = %34, %17, %5
  %36 = load i8, ptr %9, align 1, !range !6, !noundef !7
  %37 = trunc i8 %36 to i1
  br i1 %37, label %90, label %38

38:                                               ; preds = %35
  call void @llvm.lifetime.start.p0(i64 8, ptr %11) #12
  call void @llvm.lifetime.start.p0(i64 8, ptr %12) #12
  %39 = load ptr, ptr %6, align 8
  %40 = getelementptr inbounds nuw %struct.RelationData, ptr %39, i32 0, i32 15
  %41 = load i32, ptr %40, align 8
  %42 = load ptr, ptr %7, align 8
  %43 = getelementptr inbounds nuw %struct.AlterTableCmd, ptr %42, i32 0, i32 2
  %44 = load ptr, ptr %43, align 8
  %45 = call ptr @SearchSysCacheCopyAttName(i32 noundef %41, ptr noundef %44)
  store ptr %45, ptr %11, align 8
  %46 = load ptr, ptr %11, align 8
  %47 = icmp ne ptr %46, null
  br i1 %47, label %69, label %48

48:                                               ; preds = %38
  br label %49

49:                                               ; preds = %48
  br i1 true, label %50, label %52

50:                                               ; preds = %49
  %51 = call zeroext i1 @errstart_cold(i32 noundef 21, ptr noundef null) #13
  br i1 %51, label %54, label %66

52:                                               ; preds = %49
  %53 = call zeroext i1 @errstart(i32 noundef 21, ptr noundef null)
  br i1 %53, label %54, label %66

54:                                               ; preds = %52, %50
  %55 = call i32 @errcode(i32 noundef 50360452)
  %56 = load ptr, ptr %7, align 8
  %57 = getelementptr inbounds nuw %struct.AlterTableCmd, ptr %56, i32 0, i32 2
  %58 = load ptr, ptr %57, align 8
  %59 = load ptr, ptr %6, align 8
  %60 = getelementptr inbounds nuw %struct.RelationData, ptr %59, i32 0, i32 13
  %61 = load ptr, ptr %60, align 8
  %62 = getelementptr inbounds nuw %struct.FormData_pg_class, ptr %61, i32 0, i32 1
  %63 = getelementptr inbounds nuw %struct.nameData, ptr %62, i32 0, i32 0
  %64 = getelementptr inbounds [64 x i8], ptr %63, i64 0, i64 0
  %65 = call i32 (ptr, ...) @errmsg(ptr noundef @.str.218, ptr noundef %58, ptr noundef %64)
  call void @errfinish(ptr noundef @.str.2, i32 noundef 8617, ptr noundef @__func__.ATPrepDropExpression)
  br label %66

66:                                               ; preds = %54, %52, %50
  unreachable

67:                                               ; No predecessors!
  br label %68

68:                                               ; preds = %67
  br label %69

69:                                               ; preds = %68, %38
  %70 = load ptr, ptr %11, align 8
  %71 = call ptr @GETSTRUCT(ptr noundef %70)
  store ptr %71, ptr %12, align 8
  %72 = load ptr, ptr %12, align 8
  %73 = getelementptr inbounds nuw %struct.FormData_pg_attribute, ptr %72, i32 0, i32 18
  %74 = load i16, ptr %73, align 2
  %75 = sext i16 %74 to i32
  %76 = icmp sgt i32 %75, 0
  br i1 %76, label %77, label %89

77:                                               ; preds = %69
  br label %78

78:                                               ; preds = %77
  br i1 true, label %79, label %81

79:                                               ; preds = %78
  %80 = call zeroext i1 @errstart_cold(i32 noundef 21, ptr noundef null) #13
  br i1 %80, label %83, label %86

81:                                               ; preds = %78
  %82 = call zeroext i1 @errstart(i32 noundef 21, ptr noundef null)
  br i1 %82, label %83, label %86

83:                                               ; preds = %81, %79
  %84 = call i32 @errcode(i32 noundef 101056644)
  %85 = call i32 (ptr, ...) @errmsg(ptr noundef @.str.219)
  call void @errfinish(ptr noundef @.str.2, i32 noundef 8624, ptr noundef @__func__.ATPrepDropExpression)
  br label %86

86:                                               ; preds = %83, %81, %79
  unreachable

87:                                               ; No predecessors!
  br label %88

88:                                               ; preds = %87
  br label %89

89:                                               ; preds = %88, %69
  call void @llvm.lifetime.end.p0(i64 8, ptr %12) #12
  call void @llvm.lifetime.end.p0(i64 8, ptr %11) #12
  br label %90

90:                                               ; preds = %89, %35
  ret void
}