; Function Attrs: nounwind uwtable
define internal fastcc void @ATPrepDropExpression(ptr noundef readonly captures(none) %0, ptr noundef readonly captures(none) %1, i1 noundef zeroext %2, i1 noundef zeroext %3, i32 noundef %4) unnamed_addr #0 {
  br i1 %2, label %14, label %6

6:                                                ; preds = %5
  %7 = getelementptr inbounds nuw i8, ptr %0, i64 72
  %8 = load i32, ptr %7, align 8
  %9 = tail call ptr @find_inheritance_children(i32 noundef %8, i32 noundef %4) #15
  %.not = icmp eq ptr %9, null
  br i1 %.not, label %14, label %10

10:                                               ; preds = %6
  %11 = tail call zeroext i1 @errstart_cold(i32 noundef 21, ptr noundef null) #16
  tail call void @llvm.assume(i1 %11)
  %12 = tail call i32 @errcode(i32 noundef 1088) #15
  %13 = tail call i32 (ptr, ...) @errmsg(ptr noundef nonnull @.str.217) #15
  tail call void @errfinish(ptr noundef nonnull @.str.2, i32 noundef 8602, ptr noundef nonnull @__func__.ATPrepDropExpression) #15
  unreachable

14:                                               ; preds = %6, %5
  br i1 %3, label %42, label %15

15:                                               ; preds = %14
  %16 = getelementptr inbounds nuw i8, ptr %0, i64 72
  %17 = load i32, ptr %16, align 8
  %18 = getelementptr inbounds nuw i8, ptr %1, i64 8
  %19 = load ptr, ptr %18, align 8
  %20 = tail call ptr @SearchSysCacheCopyAttName(i32 noundef %17, ptr noundef %19) #15
  %.not10 = icmp eq ptr %20, null
  br i1 %.not10, label %21, label %29

21:                                               ; preds = %15
  %22 = tail call zeroext i1 @errstart_cold(i32 noundef 21, ptr noundef null) #16
  tail call void @llvm.assume(i1 %22)
  %23 = tail call i32 @errcode(i32 noundef 50360452) #15
  %24 = load ptr, ptr %18, align 8
  %25 = getelementptr inbounds nuw i8, ptr %0, i64 56
  %26 = load ptr, ptr %25, align 8
  %27 = getelementptr inbounds nuw i8, ptr %26, i64 4
  %28 = tail call i32 (ptr, ...) @errmsg(ptr noundef nonnull @.str.218, ptr noundef %24, ptr noundef nonnull %27) #15
  tail call void @errfinish(ptr noundef nonnull @.str.2, i32 noundef 8617, ptr noundef nonnull @__func__.ATPrepDropExpression) #15
  unreachable

29:                                               ; preds = %15
  %30 = getelementptr i8, ptr %20, i64 16
  %.val = load ptr, ptr %30, align 8
  %31 = getelementptr inbounds nuw i8, ptr %.val, i64 22
  %32 = load i8, ptr %31, align 2
  %33 = zext i8 %32 to i64
  %34 = getelementptr inbounds nuw i8, ptr %.val, i64 %33
  %35 = getelementptr inbounds nuw i8, ptr %34, i64 94
  %36 = load i16, ptr %35, align 2
  %37 = icmp sgt i16 %36, 0
  br i1 %37, label %38, label %42

38:                                               ; preds = %29
  %39 = tail call zeroext i1 @errstart_cold(i32 noundef 21, ptr noundef null) #16
  tail call void @llvm.assume(i1 %39)
  %40 = tail call i32 @errcode(i32 noundef 101056644) #15
  %41 = tail call i32 (ptr, ...) @errmsg(ptr noundef nonnull @.str.219) #15
  tail call void @errfinish(ptr noundef nonnull @.str.2, i32 noundef 8624, ptr noundef nonnull @__func__.ATPrepDropExpression) #15
  unreachable

42:                                               ; preds = %29, %14
  ret void
}